; ModuleID = '32/1579.c'
source_filename = "32/1579.c"
target datalayout = "e-m:e-p270:32:32-p271:32:32-p272:64:64-i64:64-f80:128-n8:16:32:64-S128"
target triple = "x86_64-pc-linux-gnu"

@.str = private unnamed_addr constant [3 x i8] c"%d\00", align 1
@.str.1 = private unnamed_addr constant [4 x i8] c"%d\0A\00", align 1
@.str.2 = private unnamed_addr constant [3 x i8] c"%s\00", align 1

; Function Attrs: noinline nounwind uwtable
define dso_local void @plus(i8* %0, i8* %1) #0 {
  %3 = alloca i8*, align 8
  %4 = alloca i8*, align 8
  %5 = alloca i32*, align 8
  %6 = alloca i32*, align 8
  %7 = alloca i32*, align 8
  %8 = alloca [100 x i32], align 16
  %9 = alloca i32, align 4
  %10 = alloca i32, align 4
  %11 = alloca i32, align 4
  store i8* %0, i8** %3, align 8
  store i8* %1, i8** %4, align 8
  %12 = load i8*, i8** %3, align 8
  %13 = call i64 @strlen(i8* %12) #3
  %14 = trunc i64 %13 to i32
  store i32 %14, i32* %10, align 4
  %15 = load i8*, i8** %4, align 8
  %16 = call i64 @strlen(i8* %15) #3
  %17 = trunc i64 %16 to i32
  store i32 %17, i32* %11, align 4
  store i32 0, i32* %9, align 4
  br label %18

18:                                               ; preds = %45, %2
  %19 = load i32, i32* %9, align 4
  %20 = load i32, i32* %11, align 4
  %21 = icmp slt i32 %19, %20
  br i1 %21, label %22, label %48

22:                                               ; preds = %18
  %23 = load i8*, i8** %3, align 8
  %24 = load i32, i32* %10, align 4
  %25 = sub nsw i32 %24, 1
  %26 = load i32, i32* %9, align 4
  %27 = sub nsw i32 %25, %26
  %28 = sext i32 %27 to i64
  %29 = getelementptr inbounds i8, i8* %23, i64 %28
  %30 = load i8, i8* %29, align 1
  %31 = sext i8 %30 to i32
  %32 = load i8*, i8** %4, align 8
  %33 = load i32, i32* %11, align 4
  %34 = load i32, i32* %9, align 4
  %35 = sub nsw i32 %33, %34
  %36 = sub nsw i32 %35, 1
  %37 = sext i32 %36 to i64
  %38 = getelementptr inbounds i8, i8* %32, i64 %37
  %39 = load i8, i8* %38, align 1
  %40 = sext i8 %39 to i32
  %41 = sub nsw i32 %31, %40
  %42 = load i32, i32* %9, align 4
  %43 = sext i32 %42 to i64
  %44 = getelementptr inbounds [100 x i32], [100 x i32]* %8, i64 0, i64 %43
  store i32 %41, i32* %44, align 4
  br label %45

45:                                               ; preds = %22
  %46 = load i32, i32* %9, align 4
  %47 = add nsw i32 %46, 1
  store i32 %47, i32* %9, align 4
  br label %18

48:                                               ; preds = %18
  %49 = load i32, i32* %11, align 4
  store i32 %49, i32* %9, align 4
  br label %50

50:                                               ; preds = %68, %48
  %51 = load i32, i32* %9, align 4
  %52 = load i32, i32* %10, align 4
  %53 = icmp slt i32 %51, %52
  br i1 %53, label %54, label %71

54:                                               ; preds = %50
  %55 = load i8*, i8** %3, align 8
  %56 = load i32, i32* %10, align 4
  %57 = load i32, i32* %9, align 4
  %58 = sub nsw i32 %56, %57
  %59 = sub nsw i32 %58, 1
  %60 = sext i32 %59 to i64
  %61 = getelementptr inbounds i8, i8* %55, i64 %60
  %62 = load i8, i8* %61, align 1
  %63 = sext i8 %62 to i32
  %64 = sub nsw i32 %63, 48
  %65 = load i32, i32* %9, align 4
  %66 = sext i32 %65 to i64
  %67 = getelementptr inbounds [100 x i32], [100 x i32]* %8, i64 0, i64 %66
  store i32 %64, i32* %67, align 4
  br label %68

68:                                               ; preds = %54
  %69 = load i32, i32* %9, align 4
  %70 = add nsw i32 %69, 1
  store i32 %70, i32* %9, align 4
  br label %50

71:                                               ; preds = %50
  store i32 0, i32* %9, align 4
  br label %72

72:                                               ; preds = %102, %71
  %73 = load i32, i32* %9, align 4
  %74 = load i32, i32* %10, align 4
  %75 = icmp slt i32 %73, %74
  br i1 %75, label %76, label %105

76:                                               ; preds = %72
  %77 = load i32, i32* %9, align 4
  %78 = sext i32 %77 to i64
  %79 = getelementptr inbounds [100 x i32], [100 x i32]* %8, i64 0, i64 %78
  %80 = load i32, i32* %79, align 4
  %81 = icmp slt i32 %80, 0
  br i1 %81, label %82, label %101

82:                                               ; preds = %76
  %83 = load i32, i32* %9, align 4
  %84 = sext i32 %83 to i64
  %85 = getelementptr inbounds [100 x i32], [100 x i32]* %8, i64 0, i64 %84
  %86 = load i32, i32* %85, align 4
  %87 = add nsw i32 10, %86
  %88 = load i32, i32* %9, align 4
  %89 = sext i32 %88 to i64
  %90 = getelementptr inbounds [100 x i32], [100 x i32]* %8, i64 0, i64 %89
  store i32 %87, i32* %90, align 4
  %91 = load i32, i32* %9, align 4
  %92 = add nsw i32 %91, 1
  %93 = sext i32 %92 to i64
  %94 = getelementptr inbounds [100 x i32], [100 x i32]* %8, i64 0, i64 %93
  %95 = load i32, i32* %94, align 4
  %96 = sub nsw i32 %95, 1
  %97 = load i32, i32* %9, align 4
  %98 = add nsw i32 %97, 1
  %99 = sext i32 %98 to i64
  %100 = getelementptr inbounds [100 x i32], [100 x i32]* %8, i64 0, i64 %99
  store i32 %96, i32* %100, align 4
  br label %101

101:                                              ; preds = %82, %76
  br label %102

102:                                              ; preds = %101
  %103 = load i32, i32* %9, align 4
  %104 = add nsw i32 %103, 1
  store i32 %104, i32* %9, align 4
  br label %72

105:                                              ; preds = %72
  %106 = getelementptr inbounds [100 x i32], [100 x i32]* %8, i64 0, i64 0
  store i32* %106, i32** %5, align 8
  %107 = load i32*, i32** %5, align 8
  %108 = load i32, i32* %10, align 4
  %109 = sext i32 %108 to i64
  %110 = getelementptr inbounds i32, i32* %107, i64 %109
  %111 = getelementptr inbounds i32, i32* %110, i64 -1
  store i32* %111, i32** %6, align 8
  %112 = load i32*, i32** %6, align 8
  store i32* %112, i32** %7, align 8
  br label %113

113:                                              ; preds = %121, %105
  %114 = load i32*, i32** %7, align 8
  %115 = load i32*, i32** %5, align 8
  %116 = icmp ne i32* %114, %115
  br i1 %116, label %117, label %124

117:                                              ; preds = %113
  %118 = load i32*, i32** %7, align 8
  %119 = load i32, i32* %118, align 4
  %120 = call i32 (i8*, ...) @printf(i8* getelementptr inbounds ([3 x i8], [3 x i8]* @.str, i64 0, i64 0), i32 %119)
  br label %121

121:                                              ; preds = %117
  %122 = load i32*, i32** %7, align 8
  %123 = getelementptr inbounds i32, i32* %122, i32 -1
  store i32* %123, i32** %7, align 8
  br label %113

124:                                              ; preds = %113
  %125 = load i32*, i32** %5, align 8
  %126 = load i32, i32* %125, align 4
  %127 = call i32 (i8*, ...) @printf(i8* getelementptr inbounds ([4 x i8], [4 x i8]* @.str.1, i64 0, i64 0), i32 %126)
  ret void
}

; Function Attrs: nounwind readonly
declare dso_local i64 @strlen(i8*) #1

declare dso_local i32 @printf(i8*, ...) #2

; Function Attrs: noinline nounwind uwtable
define dso_local void @main() #0 {
  %1 = alloca i32, align 4
  %2 = alloca i32, align 4
  %3 = alloca [100 x [100 x i8]], align 16
  %4 = alloca [100 x [100 x i8]], align 16
  %5 = call i32 (i8*, ...) @__isoc99_scanf(i8* getelementptr inbounds ([3 x i8], [3 x i8]* @.str, i64 0, i64 0), i32* %1)
  store i32 0, i32* %2, align 4
  br label %6

6:                                                ; preds = %21, %0
  %7 = load i32, i32* %2, align 4
  %8 = load i32, i32* %1, align 4
  %9 = icmp slt i32 %7, %8
  br i1 %9, label %10, label %24

10:                                               ; preds = %6
  %11 = load i32, i32* %2, align 4
  %12 = sext i32 %11 to i64
  %13 = getelementptr inbounds [100 x [100 x i8]], [100 x [100 x i8]]* %3, i64 0, i64 %12
  %14 = getelementptr inbounds [100 x i8], [100 x i8]* %13, i64 0, i64 0
  %15 = call i32 (i8*, ...) @__isoc99_scanf(i8* getelementptr inbounds ([3 x i8], [3 x i8]* @.str.2, i64 0, i64 0), i8* %14)
  %16 = load i32, i32* %2, align 4
  %17 = sext i32 %16 to i64
  %18 = getelementptr inbounds [100 x [100 x i8]], [100 x [100 x i8]]* %4, i64 0, i64 %17
  %19 = getelementptr inbounds [100 x i8], [100 x i8]* %18, i64 0, i64 0
  %20 = call i32 (i8*, ...) @__isoc99_scanf(i8* getelementptr inbounds ([3 x i8], [3 x i8]* @.str.2, i64 0, i64 0), i8* %19)
  br label %21

21:                                               ; preds = %10
  %22 = load i32, i32* %2, align 4
  %23 = add nsw i32 %22, 1
  store i32 %23, i32* %2, align 4
  br label %6

24:                                               ; preds = %6
  store i32 0, i32* %2, align 4
  br label %25

25:                                               ; preds = %38, %24
  %26 = load i32, i32* %2, align 4
  %27 = load i32, i32* %1, align 4
  %28 = icmp slt i32 %26, %27
  br i1 %28, label %29, label %41

29:                                               ; preds = %25
  %30 = load i32, i32* %2, align 4
  %31 = sext i32 %30 to i64
  %32 = getelementptr inbounds [100 x [100 x i8]], [100 x [100 x i8]]* %3, i64 0, i64 %31
  %33 = getelementptr inbounds [100 x i8], [100 x i8]* %32, i64 0, i64 0
  %34 = load i32, i32* %2, align 4
  %35 = sext i32 %34 to i64
  %36 = getelementptr inbounds [100 x [100 x i8]], [100 x [100 x i8]]* %4, i64 0, i64 %35
  %37 = getelementptr inbounds [100 x i8], [100 x i8]* %36, i64 0, i64 0
  call void @plus(i8* %33, i8* %37)
  br label %38

38:                                               ; preds = %29
  %39 = load i32, i32* %2, align 4
  %40 = add nsw i32 %39, 1
  store i32 %40, i32* %2, align 4
  br label %25

41:                                               ; preds = %25
  ret void
}

declare dso_local i32 @__isoc99_scanf(i8*, ...) #2


!llvm.module.flags = !{!0}
!llvm.ident = !{!1}

!0 = !{i32 1, !"wchar_size", i32 4}
!1 = !{!"clang version 10.0.0-4ubuntu1 "}
